; Function Attrs: mustprogress ssp uwtable
define void @_ZNK6open3d4core7HashMap11BucketSizesEv(ptr dead_on_unwind noalias writable sret(%"class.std::vector.17") align 8 %0, ptr noundef nonnull readonly align 8 captures(none) dereferenceable(152) %1) local_unnamed_addr #2 align 2 {
  %3 = getelementptr inbounds nuw i8, ptr %1, i64 8
  %4 = load ptr, ptr %3, align 8, !tbaa !32
  %5 = load ptr, ptr %4, align 8, !tbaa !4
  %6 = getelementptr inbounds nuw i8, ptr %5, i64 88
  %7 = load ptr, ptr %6, align 8
  tail call void %7(ptr dead_on_unwind writable sret(%"class.std::vector.17") align 8 %0, ptr noundef nonnull align 8 dereferenceable(72) %4)
  ret void
}